target datalayout = "e-m:e-p270:32:32-p271:32:32-p272:64:64-i64:64-i128:128-f80:128-n8:16:32:64-S128"
target triple = "x86_64-pc-linux-gnu"

; Function Attrs: mustprogress uwtable
define void @ulocbld_clear_77(ptr noundef %0) #1 {
  %2 = alloca ptr, align 8
  store ptr %0, ptr %2, align 8, !tbaa !23
  %3 = load ptr, ptr %2, align 8, !tbaa !23
  %4 = icmp eq ptr %3, null
  br i1 %4, label %5, label %6

5:                                                ; preds = %1
  br label %9

6:                                                ; preds = %1
  %7 = load ptr, ptr %2, align 8, !tbaa !23
  %8 = call noundef nonnull align 8 dereferenceable(48) ptr @_ZN6icu_7713LocaleBuilder5clearEv(ptr noundef nonnull align 8 dereferenceable(48) %7)
  br label %9

9:                                                ; preds = %6, %5
  ret void
}